; Function Attrs: nounwind uwtable
define internal fastcc void @list_keyexchanges() unnamed_addr #0 {
  %1 = tail call ptr @OPENSSL_sk_new(ptr noundef nonnull @kex_cmp) #6
  %2 = tail call ptr @app_get0_libctx() #6
  tail call void @EVP_KEYEXCH_do_all_provided(ptr noundef %2, ptr noundef nonnull @collect_kex, ptr noundef %1) #6
  tail call void @OPENSSL_sk_sort(ptr noundef %1) #6
  %3 = tail call i32 @OPENSSL_sk_num(ptr noundef %1) #6
  %4 = icmp sgt i32 %3, 0
  br i1 %4, label %.lr.ph, label %._crit_edge.thread

._crit_edge.thread:                               ; preds = %0
  tail call void @OPENSSL_sk_pop_free(ptr noundef %1, ptr noundef nonnull @EVP_KEYEXCH_free) #6
  br label %38

.lr.ph:                                           ; preds = %0, %33
  %.030 = phi i32 [ %34, %33 ], [ 0, %0 ]
  %.02129 = phi i32 [ %.1, %33 ], [ 0, %0 ]
  %5 = tail call ptr @OPENSSL_sk_value(ptr noundef %1, i32 noundef %.030) #6
  %6 = load ptr, ptr @select_name, align 8, !tbaa !23
  %.not = icmp eq ptr %6, null
  br i1 %.not, label %9, label %7

7:                                                ; preds = %.lr.ph
  %8 = tail call i32 @EVP_KEYEXCH_is_a(ptr noundef %5, ptr noundef nonnull %6) #6
  %.not25 = icmp eq i32 %8, 0
  br i1 %.not25, label %33, label %9

9:                                                ; preds = %7, %.lr.ph
  %10 = tail call ptr @OPENSSL_sk_new(ptr noundef nonnull @name_cmp) #6
  %.not26 = icmp eq ptr %10, null
  br i1 %.not26, label %32, label %11

11:                                               ; preds = %9
  %12 = tail call i32 @EVP_KEYEXCH_names_do_all(ptr noundef %5, ptr noundef nonnull @collect_names, ptr noundef nonnull %10) #6
  %.not27 = icmp eq i32 %12, 0
  br i1 %.not27, label %32, label %13

13:                                               ; preds = %11
  %14 = add nsw i32 %.02129, 1
  %15 = load ptr, ptr @bio_out, align 8, !tbaa !4
  %16 = tail call i32 (ptr, ptr, ...) @BIO_printf(ptr noundef %15, ptr noundef nonnull @.str.102) #6
  %17 = load ptr, ptr @bio_out, align 8, !tbaa !4
  tail call void @print_names(ptr noundef %17, ptr noundef nonnull %10) #6
  %18 = load ptr, ptr @bio_out, align 8, !tbaa !4
  %19 = tail call ptr @EVP_KEYEXCH_get0_provider(ptr noundef %5) #6
  %20 = tail call ptr @OSSL_PROVIDER_get0_name(ptr noundef %19) #6
  %21 = tail call i32 (ptr, ptr, ...) @BIO_printf(ptr noundef %18, ptr noundef nonnull @.str.103, ptr noundef %20) #6
  %.b = load i1, ptr @verbose, align 4
  br i1 %.b, label %22, label %32

22:                                               ; preds = %13
  %23 = tail call ptr @EVP_KEYEXCH_get0_description(ptr noundef %5) #6
  %.not28 = icmp eq ptr %23, null
  br i1 %.not28, label %27, label %24

24:                                               ; preds = %22
  %25 = load ptr, ptr @bio_out, align 8, !tbaa !4
  %26 = tail call i32 (ptr, ptr, ...) @BIO_printf(ptr noundef %25, ptr noundef nonnull @.str.104, ptr noundef nonnull %23) #6
  br label %27

27:                                               ; preds = %24, %22
  %28 = tail call ptr @EVP_KEYEXCH_settable_ctx_params(ptr noundef %5) #6
  %29 = tail call i32 @print_param_types(ptr noundef nonnull @.str.107, ptr noundef %28, i32 noundef 4) #6
  %30 = tail call ptr @EVP_KEYEXCH_gettable_ctx_params(ptr noundef %5) #6
  %31 = tail call i32 @print_param_types(ptr noundef nonnull @.str.106, ptr noundef %30, i32 noundef 4) #6
  br label %32

32:                                               ; preds = %13, %27, %11, %9
  %.2 = phi i32 [ %14, %27 ], [ %14, %13 ], [ %.02129, %11 ], [ %.02129, %9 ]
  tail call void @OPENSSL_sk_free(ptr noundef %10) #6
  br label %33

33:                                               ; preds = %7, %32
  %.1 = phi i32 [ %.2, %32 ], [ %.02129, %7 ]
  %34 = add nuw nsw i32 %.030, 1
  %35 = tail call i32 @OPENSSL_sk_num(ptr noundef %1) #6
  %36 = icmp slt i32 %34, %35
  br i1 %36, label %.lr.ph, label %._crit_edge, !llvm.loop !47

._crit_edge:                                      ; preds = %33
  %37 = icmp eq i32 %.1, 0
  tail call void @OPENSSL_sk_pop_free(ptr noundef %1, ptr noundef nonnull @EVP_KEYEXCH_free) #6
  br i1 %37, label %38, label %41

38:                                               ; preds = %._crit_edge.thread, %._crit_edge
  %39 = load ptr, ptr @bio_out, align 8, !tbaa !4
  %40 = tail call i32 (ptr, ptr, ...) @BIO_printf(ptr noundef %39, ptr noundef nonnull @.str.113) #6
  br label %41

41:                                               ; preds = %38, %._crit_edge
  ret void
}